target datalayout = "e-m:e-p270:32:32-p271:32:32-p272:64:64-i64:64-i128:128-f80:128-n8:16:32:64-S128"
target triple = "x86_64-pc-linux-gnu"

; Function Attrs: nounwind sspstrong uwtable
define internal i32 @case_map(ptr noundef %0, ptr noundef %1, ptr noundef %2, ptr noundef %3, ptr noundef %4, ptr noundef %5) #0 {
  %7 = alloca ptr, align 8
  %8 = alloca ptr, align 8
  %9 = alloca ptr, align 8
  %10 = alloca ptr, align 8
  %11 = alloca ptr, align 8
  %12 = alloca ptr, align 8
  %13 = alloca i32, align 4
  %14 = alloca ptr, align 8
  %15 = alloca i32, align 4
  store ptr %0, ptr %7, align 8, !tbaa !23
  store ptr %1, ptr %8, align 8, !tbaa !14
  store ptr %2, ptr %9, align 8, !tbaa !16
  store ptr %3, ptr %10, align 8, !tbaa !16
  store ptr %4, ptr %11, align 8, !tbaa !16
  store ptr %5, ptr %12, align 8, !tbaa !17
  call void @llvm.lifetime.start.p0(i64 4, ptr %13) #3
  call void @llvm.lifetime.start.p0(i64 8, ptr %14) #3
  %16 = load ptr, ptr %10, align 8, !tbaa !16
  store ptr %16, ptr %14, align 8, !tbaa !16
  call void @llvm.lifetime.start.p0(i64 4, ptr %15) #3
  %17 = load ptr, ptr %7, align 8, !tbaa !23
  %18 = load i32, ptr %17, align 4, !tbaa !13
  store i32 %18, ptr %15, align 4, !tbaa !13
  br label %19

19:                                               ; preds = %149, %6
  %20 = load ptr, ptr %8, align 8, !tbaa !14
  %21 = load ptr, ptr %20, align 8, !tbaa !16
  %22 = load ptr, ptr %9, align 8, !tbaa !16
  %23 = icmp ult ptr %21, %22
  br i1 %23, label %24, label %28

24:                                               ; preds = %19
  %25 = load ptr, ptr %10, align 8, !tbaa !16
  %26 = load ptr, ptr %11, align 8, !tbaa !16
  %27 = icmp ult ptr %25, %26
  br label %28

28:                                               ; preds = %24, %19
  %29 = phi i1 [ false, %19 ], [ %27, %24 ]
  br i1 %29, label %30, label %150

30:                                               ; preds = %28
  %31 = load ptr, ptr %8, align 8, !tbaa !14
  %32 = load ptr, ptr %31, align 8, !tbaa !16
  %33 = getelementptr inbounds nuw i8, ptr %32, i32 1
  store ptr %33, ptr %31, align 8, !tbaa !16
  %34 = load i8, ptr %32, align 1, !tbaa !19
  %35 = zext i8 %34 to i32
  store i32 %35, ptr %13, align 4, !tbaa !13
  %36 = load i32, ptr %13, align 4, !tbaa !13
  %37 = icmp eq i32 %36, 223
  br i1 %37, label %38, label %62

38:                                               ; preds = %30
  %39 = load i32, ptr %15, align 4, !tbaa !13
  %40 = and i32 %39, 8192
  %41 = icmp ne i32 %40, 0
  br i1 %41, label %42, label %51

42:                                               ; preds = %38
  %43 = load i32, ptr %15, align 4, !tbaa !13
  %44 = or i32 %43, 262144
  store i32 %44, ptr %15, align 4, !tbaa !13
  %45 = load ptr, ptr %10, align 8, !tbaa !16
  %46 = getelementptr inbounds nuw i8, ptr %45, i32 1
  store ptr %46, ptr %10, align 8, !tbaa !16
  store i8 83, ptr %45, align 1, !tbaa !19
  %47 = load i32, ptr %15, align 4, !tbaa !13
  %48 = and i32 %47, 32768
  %49 = icmp ne i32 %48, 0
  %50 = select i1 %49, i32 115, i32 83
  store i32 %50, ptr %13, align 4, !tbaa !13
  br label %61

51:                                               ; preds = %38
  %52 = load i32, ptr %15, align 4, !tbaa !13
  %53 = and i32 %52, 524288
  %54 = icmp ne i32 %53, 0
  br i1 %54, label %55, label %60

55:                                               ; preds = %51
  %56 = load i32, ptr %15, align 4, !tbaa !13
  %57 = or i32 %56, 262144
  store i32 %57, ptr %15, align 4, !tbaa !13
  %58 = load ptr, ptr %10, align 8, !tbaa !16
  %59 = getelementptr inbounds nuw i8, ptr %58, i32 1
  store ptr %59, ptr %10, align 8, !tbaa !16
  store i8 115, ptr %58, align 1, !tbaa !19
  store i32 115, ptr %13, align 4, !tbaa !13
  br label %60

60:                                               ; preds = %55, %51
  br label %61

61:                                               ; preds = %60, %42
  br label %138

62:                                               ; preds = %30
  %63 = load i32, ptr %13, align 4, !tbaa !13
  %64 = icmp eq i32 %63, 170
  br i1 %64, label %74, label %65

65:                                               ; preds = %62
  %66 = load i32, ptr %13, align 4, !tbaa !13
  %67 = icmp eq i32 %66, 181
  br i1 %67, label %74, label %68

68:                                               ; preds = %65
  %69 = load i32, ptr %13, align 4, !tbaa !13
  %70 = icmp eq i32 %69, 186
  br i1 %70, label %74, label %71

71:                                               ; preds = %68
  %72 = load i32, ptr %13, align 4, !tbaa !13
  %73 = icmp eq i32 %72, 255
  br i1 %73, label %74, label %75

74:                                               ; preds = %71, %68, %65, %62
  br label %137

75:                                               ; preds = %71
  %76 = load i32, ptr %13, align 4, !tbaa !13
  %77 = zext i32 %76 to i64
  %78 = getelementptr inbounds nuw [256 x i16], ptr @EncISO_8859_9_CtypeTable, i64 0, i64 %77
  %79 = load i16, ptr %78, align 2, !tbaa !21
  %80 = zext i16 %79 to i32
  %81 = and i32 %80, 1024
  %82 = icmp ne i32 %81, 0
  br i1 %82, label %83, label %104

83:                                               ; preds = %75
  %84 = load i32, ptr %15, align 4, !tbaa !13
  %85 = and i32 %84, 540672
  %86 = icmp ne i32 %85, 0
  br i1 %86, label %87, label %104

87:                                               ; preds = %83
  %88 = load i32, ptr %15, align 4, !tbaa !13
  %89 = or i32 %88, 262144
  store i32 %89, ptr %15, align 4, !tbaa !13
  %90 = load i32, ptr %13, align 4, !tbaa !13
  %91 = icmp eq i32 %90, 73
  br i1 %91, label %92, label %97

92:                                               ; preds = %87
  %93 = load i32, ptr %15, align 4, !tbaa !13
  %94 = and i32 %93, 1048576
  %95 = icmp ne i32 %94, 0
  %96 = select i1 %95, i32 253, i32 105
  store i32 %96, ptr %13, align 4, !tbaa !13
  br label %103

97:                                               ; preds = %87
  %98 = load i32, ptr %13, align 4, !tbaa !13
  %99 = zext i32 %98 to i64
  %100 = getelementptr inbounds nuw [256 x i8], ptr @EncISO_8859_9_ToLowerCaseTable, i64 0, i64 %99
  %101 = load i8, ptr %100, align 1, !tbaa !19
  %102 = zext i8 %101 to i32
  store i32 %102, ptr %13, align 4, !tbaa !13
  br label %103

103:                                              ; preds = %97, %92
  br label %136

104:                                              ; preds = %83, %75
  %105 = load i32, ptr %13, align 4, !tbaa !13
  %106 = zext i32 %105 to i64
  %107 = getelementptr inbounds nuw [256 x i16], ptr @EncISO_8859_9_CtypeTable, i64 0, i64 %106
  %108 = load i16, ptr %107, align 2, !tbaa !21
  %109 = zext i16 %108 to i32
  %110 = and i32 %109, 64
  %111 = icmp ne i32 %110, 0
  br i1 %111, label %112, label %135

112:                                              ; preds = %104
  %113 = load i32, ptr %15, align 4, !tbaa !13
  %114 = and i32 %113, 8192
  %115 = icmp ne i32 %114, 0
  br i1 %115, label %116, label %135

116:                                              ; preds = %112
  %117 = load i32, ptr %15, align 4, !tbaa !13
  %118 = or i32 %117, 262144
  store i32 %118, ptr %15, align 4, !tbaa !13
  %119 = load i32, ptr %13, align 4, !tbaa !13
  %120 = icmp eq i32 %119, 105
  br i1 %120, label %121, label %126

121:                                              ; preds = %116
  %122 = load i32, ptr %15, align 4, !tbaa !13
  %123 = and i32 %122, 1048576
  %124 = icmp ne i32 %123, 0
  %125 = select i1 %124, i32 221, i32 73
  store i32 %125, ptr %13, align 4, !tbaa !13
  br label %134

126:                                              ; preds = %116
  %127 = load i32, ptr %13, align 4, !tbaa !13
  %128 = icmp eq i32 %127, 253
  br i1 %128, label %129, label %130

129:                                              ; preds = %126
  store i32 73, ptr %13, align 4, !tbaa !13
  br label %133

130:                                              ; preds = %126
  %131 = load i32, ptr %13, align 4, !tbaa !13
  %132 = sub i32 %131, 32
  store i32 %132, ptr %13, align 4, !tbaa !13
  br label %133

133:                                              ; preds = %130, %129
  br label %134

134:                                              ; preds = %133, %121
  br label %135

135:                                              ; preds = %134, %112, %104
  br label %136

136:                                              ; preds = %135, %103
  br label %137

137:                                              ; preds = %136, %74
  br label %138

138:                                              ; preds = %137, %61
  %139 = load i32, ptr %13, align 4, !tbaa !13
  %140 = trunc i32 %139 to i8
  %141 = load ptr, ptr %10, align 8, !tbaa !16
  %142 = getelementptr inbounds nuw i8, ptr %141, i32 1
  store ptr %142, ptr %10, align 8, !tbaa !16
  store i8 %140, ptr %141, align 1, !tbaa !19
  %143 = load i32, ptr %15, align 4, !tbaa !13
  %144 = and i32 %143, 32768
  %145 = icmp ne i32 %144, 0
  br i1 %145, label %146, label %149

146:                                              ; preds = %138
  %147 = load i32, ptr %15, align 4, !tbaa !13
  %148 = xor i32 %147, 57344
  store i32 %148, ptr %15, align 4, !tbaa !13
  br label %149

149:                                              ; preds = %146, %138
  br label %19, !llvm.loop !25

150:                                              ; preds = %28
  %151 = load i32, ptr %15, align 4, !tbaa !13
  %152 = load ptr, ptr %7, align 8, !tbaa !23
  store i32 %151, ptr %152, align 4, !tbaa !13
  %153 = load ptr, ptr %10, align 8, !tbaa !16
  %154 = load ptr, ptr %14, align 8, !tbaa !16
  %155 = ptrtoint ptr %153 to i64
  %156 = ptrtoint ptr %154 to i64
  %157 = sub i64 %155, %156
  %158 = trunc i64 %157 to i32
  call void @llvm.lifetime.end.p0(i64 4, ptr %15) #3
  call void @llvm.lifetime.end.p0(i64 8, ptr %14) #3
  call void @llvm.lifetime.end.p0(i64 4, ptr %13) #3
  ret i32 %158
}