; Function Attrs: nofree norecurse nosync nounwind sspstrong memory(read, argmem: readwrite, inaccessiblemem: none) uwtable
define internal i32 @case_map(ptr noundef captures(none) %0, ptr noundef captures(none) %1, ptr noundef readnone captures(address) %2, ptr noundef %3, ptr noundef readnone captures(address) %4, ptr readnone captures(none) %5) #4 {
  %7 = load i32, ptr %0, align 4, !tbaa !14
  %8 = load ptr, ptr %1, align 8, !tbaa !6
  %9 = icmp ult ptr %8, %2
  %10 = icmp ult ptr %3, %4
  %11 = and i1 %9, %10
  br i1 %11, label %.lr.ph, label %._crit_edge

.lr.ph:                                           ; preds = %6, %52
  %12 = phi ptr [ %56, %52 ], [ %8, %6 ]
  %.061 = phi i32 [ %spec.select, %52 ], [ %7, %6 ]
  %.04460 = phi ptr [ %53, %52 ], [ %3, %6 ]
  %13 = getelementptr inbounds nuw i8, ptr %12, i64 1
  store ptr %13, ptr %1, align 8, !tbaa !6
  %14 = load i8, ptr %12, align 1, !tbaa !11
  switch i8 %14, label %27 [
    i8 -33, label %15
    i8 -1, label %52
    i8 -70, label %52
    i8 -75, label %52
    i8 -86, label %52
  ]

15:                                               ; preds = %.lr.ph
  %16 = and i32 %.061, 8192
  %.not55 = icmp eq i32 %16, 0
  br i1 %.not55, label %22, label %17

17:                                               ; preds = %15
  %18 = or i32 %.061, 262144
  %19 = getelementptr inbounds nuw i8, ptr %.04460, i64 1
  store i8 83, ptr %.04460, align 1, !tbaa !11
  %20 = and i32 %.061, 32768
  %.not57 = icmp eq i32 %20, 0
  %21 = select i1 %.not57, i8 83, i8 115
  br label %52

22:                                               ; preds = %15
  %23 = and i32 %.061, 524288
  %.not56 = icmp eq i32 %23, 0
  br i1 %.not56, label %52, label %24

24:                                               ; preds = %22
  %25 = or i32 %.061, 262144
  %26 = getelementptr inbounds nuw i8, ptr %.04460, i64 1
  store i8 115, ptr %.04460, align 1, !tbaa !11
  br label %52

27:                                               ; preds = %.lr.ph
  %28 = zext i8 %14 to i64
  %29 = getelementptr inbounds nuw [256 x i16], ptr @EncISO_8859_9_CtypeTable, i64 0, i64 %28
  %30 = load i16, ptr %29, align 2, !tbaa !12
  %31 = and i16 %30, 1024
  %.not = icmp eq i16 %31, 0
  %32 = and i32 %.061, 540672
  %.not50 = icmp eq i32 %32, 0
  %or.cond = select i1 %.not, i1 true, i1 %.not50
  br i1 %or.cond, label %42, label %33

33:                                               ; preds = %27
  %34 = or i32 %.061, 262144
  %35 = icmp eq i8 %14, 73
  br i1 %35, label %36, label %39

36:                                               ; preds = %33
  %37 = and i32 %.061, 1048576
  %.not54 = icmp eq i32 %37, 0
  %38 = select i1 %.not54, i8 105, i8 -3
  br label %52

39:                                               ; preds = %33
  %40 = getelementptr inbounds nuw [256 x i8], ptr @EncISO_8859_9_ToLowerCaseTable, i64 0, i64 %28
  %41 = load i8, ptr %40, align 1, !tbaa !11
  br label %52

42:                                               ; preds = %27
  %43 = and i16 %30, 64
  %.not51 = icmp eq i16 %43, 0
  %44 = and i32 %.061, 8192
  %.not52 = icmp eq i32 %44, 0
  %or.cond59 = select i1 %.not51, i1 true, i1 %.not52
  br i1 %or.cond59, label %52, label %45

45:                                               ; preds = %42
  %46 = or i32 %.061, 262144
  switch i8 %14, label %50 [
    i8 105, label %47
    i8 -3, label %52
  ]

47:                                               ; preds = %45
  %48 = and i32 %.061, 1048576
  %.not53 = icmp eq i32 %48, 0
  %49 = select i1 %.not53, i8 73, i8 -35
  br label %52

50:                                               ; preds = %45
  %51 = add i8 %14, -32
  br label %52

52:                                               ; preds = %.lr.ph, %.lr.ph, %.lr.ph, %.lr.ph, %45, %42, %50, %47, %36, %39, %17, %24, %22
  %.046 = phi i8 [ %21, %17 ], [ 115, %24 ], [ -33, %22 ], [ %38, %36 ], [ %41, %39 ], [ %49, %47 ], [ %51, %50 ], [ %14, %42 ], [ 73, %45 ], [ %14, %.lr.ph ], [ %14, %.lr.ph ], [ %14, %.lr.ph ], [ %14, %.lr.ph ]
  %.145 = phi ptr [ %19, %17 ], [ %26, %24 ], [ %.04460, %22 ], [ %.04460, %36 ], [ %.04460, %39 ], [ %.04460, %47 ], [ %.04460, %50 ], [ %.04460, %42 ], [ %.04460, %45 ], [ %.04460, %.lr.ph ], [ %.04460, %.lr.ph ], [ %.04460, %.lr.ph ], [ %.04460, %.lr.ph ]
  %.1 = phi i32 [ %18, %17 ], [ %25, %24 ], [ %.061, %22 ], [ %34, %36 ], [ %34, %39 ], [ %46, %47 ], [ %46, %50 ], [ %.061, %42 ], [ %46, %45 ], [ %.061, %.lr.ph ], [ %.061, %.lr.ph ], [ %.061, %.lr.ph ], [ %.061, %.lr.ph ]
  %53 = getelementptr inbounds nuw i8, ptr %.145, i64 1
  store i8 %.046, ptr %.145, align 1, !tbaa !11
  %54 = and i32 %.1, 32768
  %.not58 = icmp eq i32 %54, 0
  %55 = xor i32 %.1, 57344
  %spec.select = select i1 %.not58, i32 %.1, i32 %55
  %56 = load ptr, ptr %1, align 8, !tbaa !6
  %57 = icmp ult ptr %56, %2
  %58 = icmp ult ptr %53, %4
  %59 = select i1 %57, i1 %58, i1 false
  br i1 %59, label %.lr.ph, label %._crit_edge, !llvm.loop !16

._crit_edge:                                      ; preds = %52, %6
  %.044.lcssa = phi ptr [ %3, %6 ], [ %53, %52 ]
  %.0.lcssa = phi i32 [ %7, %6 ], [ %spec.select, %52 ]
  store i32 %.0.lcssa, ptr %0, align 4, !tbaa !14
  %60 = ptrtoint ptr %.044.lcssa to i64
  %61 = ptrtoint ptr %3 to i64
  %62 = sub i64 %60, %61
  %63 = trunc i64 %62 to i32
  ret i32 %63
}